target datalayout = "e-m:e-p270:32:32-p271:32:32-p272:64:64-i64:64-i128:128-f80:128-n8:16:32:64-S128"
target triple = "x86_64-pc-linux-gnu"

%struct._zend_phpdbg_globals = type { [11 x %struct._zend_array], %struct._zend_array, %struct._zend_array, ptr, ptr, %struct.phpdbg_frame_t, i32, ptr, %struct.phpdbg_lexer_data, ptr, %struct.sigaction, i32, i64, %struct.phpdbg_btree, %struct.phpdbg_btree, %struct._zend_array, %struct._zend_array, %struct._zend_array, %struct._zend_array, ptr, ptr, ptr, i8, ptr, ptr, ptr, i64, ptr, %struct._zval_struct, i32, i32, i8, i8, ptr, ptr, ptr, %struct._zend_array, ptr, ptr, ptr, [3 x %struct.anon.8], ptr, %struct.anon.9, i64, [2 x ptr], [3 x ptr], ptr, i8, ptr, ptr, [500 x i8], i32, %struct.phpdbg_signal_safe_mem, ptr, i64, ptr, i64 }
%struct.phpdbg_frame_t = type { i32, ptr, ptr }
%struct.phpdbg_lexer_data = type { i32, ptr, ptr, ptr, ptr, i32 }
%struct.sigaction = type { %union.anon.2, %struct.__sigset_t, i32, ptr }
%union.anon.2 = type { ptr }
%struct.__sigset_t = type { [16 x i64] }
%struct.phpdbg_btree = type { i64, i64, i8, ptr }
%struct._zval_struct = type { %union._zend_value, %union.anon.4, %union.anon.7 }
%union._zend_value = type { i64 }
%union.anon.4 = type { i32 }
%union.anon.7 = type { i32 }
%struct._zend_array = type { %struct._zend_refcounted_h, %union.anon.0, i32, %union.anon.1, i32, i32, i32, i32, i64, ptr }
%struct._zend_refcounted_h = type { i32, %union.anon }
%union.anon = type { i32 }
%union.anon.0 = type { i32 }
%union.anon.1 = type { ptr }
%struct.anon.8 = type { i32 }
%struct.anon.9 = type { i8, i32, i32, ptr, i32 }
%struct.phpdbg_signal_safe_mem = type { ptr, i8, ptr, ptr }
%struct._phpdbg_param = type { i32, i64, i64, %struct.anon.17, %struct.anon.18, ptr, i64, ptr, ptr }
%struct.anon.17 = type { ptr, i64 }
%struct.anon.18 = type { ptr, ptr }
%struct._zend_class_entry = type { i8, ptr, %union.anon.11, i32, i32, i32, i32, ptr, ptr, ptr, %struct._zend_array, %struct._zend_array, %struct._zend_array, ptr, ptr, ptr, ptr, ptr, ptr, ptr, ptr, ptr, ptr, ptr, ptr, ptr, ptr, ptr, ptr, ptr, ptr, ptr, %union.anon.12, ptr, ptr, ptr, ptr, i32, i32, i32, i32, %union.anon.13, ptr, ptr, ptr, ptr, i32, ptr, ptr, %union.anon.14 }
%union.anon.11 = type { ptr }
%union.anon.12 = type { ptr }
%union.anon.13 = type { ptr }
%union.anon.14 = type { %struct.anon.15 }
%struct.anon.15 = type { ptr, i32, i32 }
%struct._zend_string = type { %struct._zend_refcounted_h, i64, i64, [1 x i8] }
%struct._Bucket = type { %struct._zval_struct, i64, ptr }
%struct.anon.5 = type { i8, i8, %union.anon.6 }
%union.anon.6 = type { i16 }

@phpdbg_globals = external global %struct._zend_phpdbg_globals, align 8
@.str.21 = private unnamed_addr constant [23 x i8] c"%s %s: %s (%d methods)\00", align 1
@.str.22 = private unnamed_addr constant [5 x i8] c"User\00", align 1
@.str.23 = private unnamed_addr constant [9 x i8] c"Internal\00", align 1
@.str.24 = private unnamed_addr constant [10 x i8] c"Interface\00", align 1
@.str.25 = private unnamed_addr constant [15 x i8] c"Abstract Class\00", align 1
@.str.26 = private unnamed_addr constant [6 x i8] c"Class\00", align 1
@.str.27 = private unnamed_addr constant [32 x i8] c"The class %s could not be found\00", align 1

; Function Attrs: alwaysinline nounwind uwtable
define internal zeroext i8 @zval_get_type(ptr noundef %0) #1 {
  %2 = alloca ptr, align 8
  store ptr %0, ptr %2, align 8, !tbaa !104
  %3 = load ptr, ptr %2, align 8, !tbaa !104
  %4 = getelementptr inbounds nuw %struct._zval_struct, ptr %3, i32 0, i32 1
  %5 = getelementptr inbounds nuw %struct.anon.5, ptr %4, i32 0, i32 0
  %6 = load i8, ptr %5, align 8, !tbaa !100
  ret i8 %6
}

; Function Attrs: alwaysinline nounwind uwtable
define internal i32 @zend_hash_num_elements(ptr noundef %0) #1 {
  %2 = alloca ptr, align 8
  store ptr %0, ptr %2, align 8, !tbaa !99
  %3 = load ptr, ptr %2, align 8, !tbaa !99
  %4 = getelementptr inbounds nuw %struct._zend_array, ptr %3, i32 0, i32 5
  %5 = load i32, ptr %4, align 4, !tbaa !140
  ret i32 %5
}

; Function Attrs: nounwind uwtable
define hidden i32 @phpdbg_do_print_class(ptr noundef %0) #0 {
  %2 = alloca ptr, align 8
  %3 = alloca ptr, align 8
  %4 = alloca ptr, align 8
  %5 = alloca ptr, align 8
  %6 = alloca ptr, align 8
  %7 = alloca ptr, align 8
  %8 = alloca ptr, align 8
  %9 = alloca i32, align 4
  store ptr %0, ptr %2, align 8, !tbaa !4
  call void @llvm.lifetime.start.p0(i64 8, ptr %3) #12
  %10 = load ptr, ptr %2, align 8, !tbaa !4
  %11 = getelementptr inbounds nuw %struct._phpdbg_param, ptr %10, i32 0, i32 5
  %12 = load ptr, ptr %11, align 8, !tbaa !80
  %13 = load ptr, ptr %2, align 8, !tbaa !4
  %14 = getelementptr inbounds nuw %struct._phpdbg_param, ptr %13, i32 0, i32 6
  %15 = load i64, ptr %14, align 8, !tbaa !84
  %16 = trunc i64 %15 to i32
  %17 = call i32 @phpdbg_safe_class_lookup(ptr noundef %12, i32 noundef %16, ptr noundef %3)
  %18 = icmp eq i32 %17, 0
  br i1 %18, label %19, label %110

19:                                               ; preds = %1
  %20 = load i32, ptr getelementptr inbounds ([3 x %struct.anon.8], ptr getelementptr inbounds nuw (%struct._zend_phpdbg_globals, ptr @phpdbg_globals, i32 0, i32 40), i64 0, i64 1), align 4, !tbaa !41
  %21 = load ptr, ptr %3, align 8, !tbaa !85
  %22 = getelementptr inbounds nuw %struct._zend_class_entry, ptr %21, i32 0, i32 0
  %23 = load i8, ptr %22, align 8, !tbaa !86
  %24 = sext i8 %23 to i32
  %25 = icmp eq i32 %24, 2
  %26 = select i1 %25, ptr @.str.22, ptr @.str.23
  %27 = load ptr, ptr %3, align 8, !tbaa !85
  %28 = getelementptr inbounds nuw %struct._zend_class_entry, ptr %27, i32 0, i32 4
  %29 = load i32, ptr %28, align 4, !tbaa !97
  %30 = and i32 %29, 1
  %31 = icmp ne i32 %30, 0
  br i1 %31, label %32, label %33

32:                                               ; preds = %19
  br label %40

33:                                               ; preds = %19
  %34 = load ptr, ptr %3, align 8, !tbaa !85
  %35 = getelementptr inbounds nuw %struct._zend_class_entry, ptr %34, i32 0, i32 4
  %36 = load i32, ptr %35, align 4, !tbaa !97
  %37 = and i32 %36, 64
  %38 = icmp ne i32 %37, 0
  %39 = select i1 %38, ptr @.str.25, ptr @.str.26
  br label %40

40:                                               ; preds = %33, %32
  %41 = phi ptr [ @.str.24, %32 ], [ %39, %33 ]
  %42 = load ptr, ptr %3, align 8, !tbaa !85
  %43 = getelementptr inbounds nuw %struct._zend_class_entry, ptr %42, i32 0, i32 1
  %44 = load ptr, ptr %43, align 8, !tbaa !98
  %45 = getelementptr inbounds nuw %struct._zend_string, ptr %44, i32 0, i32 3
  %46 = getelementptr inbounds [1 x i8], ptr %45, i64 0, i64 0
  %47 = load ptr, ptr %3, align 8, !tbaa !85
  %48 = getelementptr inbounds nuw %struct._zend_class_entry, ptr %47, i32 0, i32 10
  %49 = call i32 @zend_hash_num_elements(ptr noundef %48)
  %50 = call i32 (i32, i32, ptr, ...) @phpdbg_print(i32 noundef 2, i32 noundef %20, ptr noundef @.str.21, ptr noundef %26, ptr noundef %41, ptr noundef %46, i32 noundef %49)
  %51 = load ptr, ptr %3, align 8, !tbaa !85
  %52 = getelementptr inbounds nuw %struct._zend_class_entry, ptr %51, i32 0, i32 10
  %53 = call i32 @zend_hash_num_elements(ptr noundef %52)
  %54 = icmp ne i32 %53, 0
  br i1 %54, label %55, label %109

55:                                               ; preds = %40
  call void @llvm.lifetime.start.p0(i64 8, ptr %4) #12
  br label %56

56:                                               ; preds = %55
  call void @llvm.lifetime.start.p0(i64 8, ptr %5) #12
  %57 = load ptr, ptr %3, align 8, !tbaa !85
  %58 = getelementptr inbounds nuw %struct._zend_class_entry, ptr %57, i32 0, i32 10
  store ptr %58, ptr %5, align 8, !tbaa !99
  call void @llvm.lifetime.start.p0(i64 8, ptr %6) #12
  %59 = load ptr, ptr %5, align 8, !tbaa !99
  %60 = getelementptr inbounds nuw %struct._zend_array, ptr %59, i32 0, i32 3
  %61 = load ptr, ptr %60, align 8, !tbaa !100
  %62 = getelementptr inbounds %struct._Bucket, ptr %61, i64 0
  store ptr %62, ptr %6, align 8, !tbaa !101
  call void @llvm.lifetime.start.p0(i64 8, ptr %7) #12
  %63 = load ptr, ptr %5, align 8, !tbaa !99
  %64 = getelementptr inbounds nuw %struct._zend_array, ptr %63, i32 0, i32 3
  %65 = load ptr, ptr %64, align 8, !tbaa !100
  %66 = load ptr, ptr %5, align 8, !tbaa !99
  %67 = getelementptr inbounds nuw %struct._zend_array, ptr %66, i32 0, i32 4
  %68 = load i32, ptr %67, align 8, !tbaa !103
  %69 = zext i32 %68 to i64
  %70 = getelementptr inbounds nuw %struct._Bucket, ptr %65, i64 %69
  store ptr %70, ptr %7, align 8, !tbaa !101
  %71 = load ptr, ptr %5, align 8, !tbaa !99
  %72 = getelementptr inbounds nuw %struct._zend_array, ptr %71, i32 0, i32 1
  %73 = load i32, ptr %72, align 8, !tbaa !100
  %74 = and i32 %73, 4
  %75 = icmp ne i32 %74, 0
  %76 = xor i1 %75, true
  call void @llvm.assume(i1 %76)
  br label %77

77:                                               ; preds = %103, %56
  %78 = load ptr, ptr %6, align 8, !tbaa !101
  %79 = load ptr, ptr %7, align 8, !tbaa !101
  %80 = icmp ne ptr %78, %79
  br i1 %80, label %81, label %106

81:                                               ; preds = %77
  call void @llvm.lifetime.start.p0(i64 8, ptr %8) #12
  %82 = load ptr, ptr %6, align 8, !tbaa !101
  %83 = getelementptr inbounds nuw %struct._Bucket, ptr %82, i32 0, i32 0
  store ptr %83, ptr %8, align 8, !tbaa !104
  %84 = load ptr, ptr %8, align 8, !tbaa !104
  %85 = call zeroext i8 @zval_get_type(ptr noundef %84)
  %86 = zext i8 %85 to i32
  %87 = icmp eq i32 %86, 0
  %88 = xor i1 %87, true
  %89 = xor i1 %88, true
  %90 = zext i1 %89 to i32
  %91 = sext i32 %90 to i64
  %92 = call i64 @llvm.expect.i64(i64 %91, i64 0)
  %93 = icmp ne i64 %92, 0
  br i1 %93, label %94, label %95

94:                                               ; preds = %81
  store i32 6, ptr %9, align 4
  br label %100

95:                                               ; preds = %81
  %96 = load ptr, ptr %8, align 8, !tbaa !104
  %97 = getelementptr inbounds nuw %struct._zval_struct, ptr %96, i32 0, i32 0
  %98 = load ptr, ptr %97, align 8, !tbaa !100
  store ptr %98, ptr %4, align 8, !tbaa !105
  %99 = load ptr, ptr %4, align 8, !tbaa !105
  call void @phpdbg_print_function_helper(ptr noundef %99)
  store i32 0, ptr %9, align 4
  br label %100

100:                                              ; preds = %95, %94
  call void @llvm.lifetime.end.p0(i64 8, ptr %8) #12
  %101 = load i32, ptr %9, align 4
  switch i32 %101, label %117 [
    i32 0, label %102
    i32 6, label %103
  ]

102:                                              ; preds = %100
  br label %103

103:                                              ; preds = %102, %100
  %104 = load ptr, ptr %6, align 8, !tbaa !101
  %105 = getelementptr inbounds nuw %struct._Bucket, ptr %104, i32 1
  store ptr %105, ptr %6, align 8, !tbaa !101
  br label %77

106:                                              ; preds = %77
  call void @llvm.lifetime.end.p0(i64 8, ptr %7) #12
  call void @llvm.lifetime.end.p0(i64 8, ptr %6) #12
  call void @llvm.lifetime.end.p0(i64 8, ptr %5) #12
  br label %107

107:                                              ; preds = %106
  br label %108

108:                                              ; preds = %107
  call void @llvm.lifetime.end.p0(i64 8, ptr %4) #12
  br label %109

109:                                              ; preds = %108, %40
  br label %116

110:                                              ; preds = %1
  %111 = load i32, ptr getelementptr inbounds ([3 x %struct.anon.8], ptr getelementptr inbounds nuw (%struct._zend_phpdbg_globals, ptr @phpdbg_globals, i32 0, i32 40), i64 0, i64 1), align 4, !tbaa !41
  %112 = load ptr, ptr %2, align 8, !tbaa !4
  %113 = getelementptr inbounds nuw %struct._phpdbg_param, ptr %112, i32 0, i32 5
  %114 = load ptr, ptr %113, align 8, !tbaa !80
  %115 = call i32 (i32, i32, ptr, ...) @phpdbg_print(i32 noundef 1, i32 noundef %111, ptr noundef @.str.27, ptr noundef %114)
  br label %116

116:                                              ; preds = %110, %109
  store i32 1, ptr %9, align 4
  call void @llvm.lifetime.end.p0(i64 8, ptr %3) #12
  ret i32 0

117:                                              ; preds = %100
  unreachable
}