; Function Attrs: nounwind uwtable
define hidden noundef i32 @phpdbg_do_print_class(ptr noundef readonly captures(none) %0) #0 {
  %2 = alloca ptr, align 8
  call void @llvm.lifetime.start.p0(i64 8, ptr nonnull %2) #11
  %3 = getelementptr inbounds nuw i8, ptr %0, i64 56
  %4 = load ptr, ptr %3, align 8, !tbaa !83
  %5 = getelementptr inbounds nuw i8, ptr %0, i64 64
  %6 = load i64, ptr %5, align 8, !tbaa !87
  %7 = trunc i64 %6 to i32
  %8 = call i32 @phpdbg_safe_class_lookup(ptr noundef %4, i32 noundef %7, ptr noundef nonnull %2) #11
  %9 = icmp eq i32 %8, 0
  %10 = load i32, ptr getelementptr inbounds nuw (i8, ptr @phpdbg_globals, i64 1508), align 4, !tbaa !40
  br i1 %9, label %11, label %48

11:                                               ; preds = %1
  %12 = load ptr, ptr %2, align 8, !tbaa !88
  %13 = load i8, ptr %12, align 8, !tbaa !89
  %14 = icmp eq i8 %13, 2
  %15 = select i1 %14, ptr @.str.22, ptr @.str.23
  %16 = getelementptr inbounds nuw i8, ptr %12, i64 28
  %17 = load i32, ptr %16, align 4, !tbaa !100
  %18 = and i32 %17, 1
  %.not = icmp eq i32 %18, 0
  %19 = and i32 %17, 64
  %.not14 = icmp eq i32 %19, 0
  %20 = select i1 %.not14, ptr @.str.26, ptr @.str.25
  %21 = select i1 %.not, ptr %20, ptr @.str.24
  %22 = getelementptr inbounds nuw i8, ptr %12, i64 8
  %23 = load ptr, ptr %22, align 8, !tbaa !101
  %24 = getelementptr inbounds nuw i8, ptr %23, i64 24
  %25 = getelementptr inbounds nuw i8, ptr %12, i64 92
  %26 = load i32, ptr %25, align 4, !tbaa !102
  %27 = call i32 (i32, i32, ptr, ...) @phpdbg_print(i32 noundef 2, i32 noundef %10, ptr noundef nonnull @.str.21, ptr noundef nonnull %15, ptr noundef nonnull %21, ptr noundef nonnull %24, i32 noundef %26) #11
  %28 = load ptr, ptr %2, align 8, !tbaa !88
  %29 = getelementptr inbounds nuw i8, ptr %28, i64 92
  %30 = load i32, ptr %29, align 4, !tbaa !102
  %.not15 = icmp eq i32 %30, 0
  br i1 %.not15, label %.loopexit, label %31

31:                                               ; preds = %11
  %32 = getelementptr inbounds nuw i8, ptr %28, i64 80
  %33 = load ptr, ptr %32, align 8, !tbaa !61
  %34 = getelementptr inbounds nuw i8, ptr %28, i64 88
  %35 = load i32, ptr %34, align 8, !tbaa !103
  %36 = zext i32 %35 to i64
  %37 = getelementptr inbounds nuw %struct._Bucket, ptr %33, i64 %36
  %38 = getelementptr inbounds nuw i8, ptr %28, i64 72
  %39 = load i32, ptr %38, align 8, !tbaa !61
  %40 = and i32 %39, 4
  %.not16 = icmp eq i32 %40, 0
  call void @llvm.assume(i1 %.not16)
  %.not1718 = icmp eq i32 %35, 0
  br i1 %.not1718, label %.loopexit, label %.lr.ph

.lr.ph:                                           ; preds = %31, %46
  %.019 = phi ptr [ %47, %46 ], [ %33, %31 ]
  %41 = getelementptr inbounds nuw i8, ptr %.019, i64 8
  %42 = load i8, ptr %41, align 8, !tbaa !61
  %43 = icmp eq i8 %42, 0
  br i1 %43, label %46, label %44, !prof !104

44:                                               ; preds = %.lr.ph
  %45 = load ptr, ptr %.019, align 8, !tbaa !61
  call fastcc void @phpdbg_print_function_helper(ptr noundef %45)
  br label %46

46:                                               ; preds = %.lr.ph, %44
  %47 = getelementptr inbounds nuw i8, ptr %.019, i64 32
  %.not17 = icmp eq ptr %47, %37
  br i1 %.not17, label %.loopexit, label %.lr.ph

48:                                               ; preds = %1
  %49 = load ptr, ptr %3, align 8, !tbaa !83
  %50 = call i32 (i32, i32, ptr, ...) @phpdbg_print(i32 noundef 1, i32 noundef %10, ptr noundef nonnull @.str.27, ptr noundef %49) #11
  br label %.loopexit

.loopexit:                                        ; preds = %46, %31, %11, %48
  call void @llvm.lifetime.end.p0(i64 8, ptr nonnull %2) #11
  ret i32 0
}